; ModuleID = '9/957.c'
source_filename = "9/957.c"
target datalayout = "e-m:e-p270:32:32-p271:32:32-p272:64:64-i64:64-f80:128-n8:16:32:64-S128"
target triple = "x86_64-pc-linux-gnu"

%struct.pa = type { [10 x i8], i32, i32 }

@n = dso_local global i32 0, align 4
@p = common dso_local global %struct.pa* null, align 8
@num = common dso_local global i32 0, align 4
@.str = private unnamed_addr constant [3 x i8] c"%s\00", align 1
@.str.1 = private unnamed_addr constant [4 x i8] c"\0A%s\00", align 1
@.str.2 = private unnamed_addr constant [3 x i8] c"%d\00", align 1
@.str.3 = private unnamed_addr constant [6 x i8] c"%s %d\00", align 1

; Function Attrs: noinline nounwind uwtable
define dso_local i32 @operate() #0 {
  %1 = alloca %struct.pa*, align 8
  %2 = alloca %struct.pa*, align 8
  %3 = alloca i32, align 4
  %4 = alloca i32, align 4
  store i32 0, i32* %3, align 4
  store i32 0, i32* %4, align 4
  %5 = load %struct.pa*, %struct.pa** @p, align 8
  store %struct.pa* %5, %struct.pa** %1, align 8
  br label %6

6:                                                ; preds = %62, %0
  %7 = load %struct.pa*, %struct.pa** %1, align 8
  %8 = load %struct.pa*, %struct.pa** @p, align 8
  %9 = load i32, i32* @num, align 4
  %10 = sext i32 %9 to i64
  %11 = getelementptr inbounds %struct.pa, %struct.pa* %8, i64 %10
  %12 = icmp ult %struct.pa* %7, %11
  br i1 %12, label %13, label %65

13:                                               ; preds = %6
  %14 = load %struct.pa*, %struct.pa** %1, align 8
  %15 = getelementptr inbounds %struct.pa, %struct.pa* %14, i32 0, i32 2
  %16 = load i32, i32* %15, align 4
  %17 = icmp eq i32 %16, 0
  br i1 %17, label %18, label %19

18:                                               ; preds = %13
  br label %62

19:                                               ; preds = %13
  %20 = load %struct.pa*, %struct.pa** @p, align 8
  store %struct.pa* %20, %struct.pa** %2, align 8
  br label %21

21:                                               ; preds = %48, %19
  %22 = load %struct.pa*, %struct.pa** %2, align 8
  %23 = load %struct.pa*, %struct.pa** @p, align 8
  %24 = load i32, i32* @num, align 4
  %25 = sext i32 %24 to i64
  %26 = getelementptr inbounds %struct.pa, %struct.pa* %23, i64 %25
  %27 = icmp ult %struct.pa* %22, %26
  br i1 %27, label %28, label %51

28:                                               ; preds = %21
  %29 = load %struct.pa*, %struct.pa** %2, align 8
  %30 = getelementptr inbounds %struct.pa, %struct.pa* %29, i32 0, i32 2
  %31 = load i32, i32* %30, align 4
  %32 = icmp eq i32 %31, 0
  br i1 %32, label %33, label %34

33:                                               ; preds = %28
  br label %48

34:                                               ; preds = %28
  %35 = load %struct.pa*, %struct.pa** %2, align 8
  %36 = getelementptr inbounds %struct.pa, %struct.pa* %35, i32 0, i32 1
  %37 = load i32, i32* %36, align 4
  %38 = load %struct.pa*, %struct.pa** %1, align 8
  %39 = getelementptr inbounds %struct.pa, %struct.pa* %38, i32 0, i32 1
  %40 = load i32, i32* %39, align 4
  %41 = icmp slt i32 %37, %40
  br i1 %41, label %42, label %47

42:                                               ; preds = %34
  %43 = load %struct.pa*, %struct.pa** %1, align 8
  %44 = getelementptr inbounds %struct.pa, %struct.pa* %43, i32 0, i32 2
  %45 = load i32, i32* %44, align 4
  %46 = add nsw i32 %45, 1
  store i32 %46, i32* %44, align 4
  br label %47

47:                                               ; preds = %42, %34
  br label %48

48:                                               ; preds = %47, %33
  %49 = load %struct.pa*, %struct.pa** %2, align 8
  %50 = getelementptr inbounds %struct.pa, %struct.pa* %49, i32 1
  store %struct.pa* %50, %struct.pa** %2, align 8
  br label %21

51:                                               ; preds = %21
  %52 = load %struct.pa*, %struct.pa** %1, align 8
  %53 = getelementptr inbounds %struct.pa, %struct.pa* %52, i32 0, i32 2
  %54 = load i32, i32* %53, align 4
  %55 = load i32, i32* %4, align 4
  %56 = icmp sgt i32 %54, %55
  br i1 %56, label %57, label %61

57:                                               ; preds = %51
  %58 = load %struct.pa*, %struct.pa** %1, align 8
  %59 = getelementptr inbounds %struct.pa, %struct.pa* %58, i32 0, i32 2
  %60 = load i32, i32* %59, align 4
  store i32 %60, i32* %4, align 4
  br label %61

61:                                               ; preds = %57, %51
  br label %62

62:                                               ; preds = %61, %18
  %63 = load %struct.pa*, %struct.pa** %1, align 8
  %64 = getelementptr inbounds %struct.pa, %struct.pa* %63, i32 1
  store %struct.pa* %64, %struct.pa** %1, align 8
  br label %6

65:                                               ; preds = %6
  %66 = load i32, i32* %4, align 4
  ret i32 %66
}

; Function Attrs: noinline nounwind uwtable
define dso_local void @print(i32 %0) #0 {
  %2 = alloca i32, align 4
  %3 = alloca i32, align 4
  %4 = alloca %struct.pa*, align 8
  store i32 %0, i32* %2, align 4
  %5 = load i32, i32* %2, align 4
  store i32 %5, i32* %3, align 4
  br label %6

6:                                                ; preds = %45, %1
  %7 = load i32, i32* %3, align 4
  %8 = icmp sge i32 %7, 0
  br i1 %8, label %9, label %48

9:                                                ; preds = %6
  %10 = load %struct.pa*, %struct.pa** @p, align 8
  store %struct.pa* %10, %struct.pa** %4, align 8
  br label %11

11:                                               ; preds = %41, %9
  %12 = load %struct.pa*, %struct.pa** %4, align 8
  %13 = load %struct.pa*, %struct.pa** @p, align 8
  %14 = load i32, i32* @num, align 4
  %15 = sext i32 %14 to i64
  %16 = getelementptr inbounds %struct.pa, %struct.pa* %13, i64 %15
  %17 = icmp ult %struct.pa* %12, %16
  br i1 %17, label %18, label %44

18:                                               ; preds = %11
  %19 = load %struct.pa*, %struct.pa** %4, align 8
  %20 = getelementptr inbounds %struct.pa, %struct.pa* %19, i32 0, i32 2
  %21 = load i32, i32* %20, align 4
  %22 = load i32, i32* %3, align 4
  %23 = icmp eq i32 %21, %22
  br i1 %23, label %24, label %40

24:                                               ; preds = %18
  %25 = load i32, i32* @n, align 4
  %26 = icmp eq i32 %25, 0
  br i1 %26, label %27, label %34

27:                                               ; preds = %24
  %28 = load %struct.pa*, %struct.pa** %4, align 8
  %29 = getelementptr inbounds %struct.pa, %struct.pa* %28, i32 0, i32 0
  %30 = getelementptr inbounds [10 x i8], [10 x i8]* %29, i64 0, i64 0
  %31 = call i32 (i8*, ...) @printf(i8* getelementptr inbounds ([3 x i8], [3 x i8]* @.str, i64 0, i64 0), i8* %30)
  %32 = load i32, i32* @n, align 4
  %33 = add nsw i32 %32, 1
  store i32 %33, i32* @n, align 4
  br label %39

34:                                               ; preds = %24
  %35 = load %struct.pa*, %struct.pa** %4, align 8
  %36 = getelementptr inbounds %struct.pa, %struct.pa* %35, i32 0, i32 0
  %37 = getelementptr inbounds [10 x i8], [10 x i8]* %36, i64 0, i64 0
  %38 = call i32 (i8*, ...) @printf(i8* getelementptr inbounds ([4 x i8], [4 x i8]* @.str.1, i64 0, i64 0), i8* %37)
  br label %39

39:                                               ; preds = %34, %27
  br label %40

40:                                               ; preds = %39, %18
  br label %41

41:                                               ; preds = %40
  %42 = load %struct.pa*, %struct.pa** %4, align 8
  %43 = getelementptr inbounds %struct.pa, %struct.pa* %42, i32 1
  store %struct.pa* %43, %struct.pa** %4, align 8
  br label %11

44:                                               ; preds = %11
  br label %45

45:                                               ; preds = %44
  %46 = load i32, i32* %3, align 4
  %47 = add nsw i32 %46, -1
  store i32 %47, i32* %3, align 4
  br label %6

48:                                               ; preds = %6
  ret void
}

declare dso_local i32 @printf(i8*, ...) #1

; Function Attrs: noinline nounwind uwtable
define dso_local i32 @main() #0 {
  %1 = alloca i32, align 4
  %2 = alloca %struct.pa*, align 8
  %3 = alloca i32, align 4
  store i32 0, i32* %1, align 4
  %4 = call i32 (i8*, ...) @__isoc99_scanf(i8* getelementptr inbounds ([3 x i8], [3 x i8]* @.str.2, i64 0, i64 0), i32* @num)
  %5 = load i32, i32* @num, align 4
  %6 = sext i32 %5 to i64
  %7 = mul i64 %6, 20
  %8 = call noalias i8* @malloc(i64 %7) #3
  %9 = bitcast i8* %8 to %struct.pa*
  store %struct.pa* %9, %struct.pa** @p, align 8
  %10 = load %struct.pa*, %struct.pa** @p, align 8
  store %struct.pa* %10, %struct.pa** %2, align 8
  br label %11

11:                                               ; preds = %36, %0
  %12 = load %struct.pa*, %struct.pa** %2, align 8
  %13 = load %struct.pa*, %struct.pa** @p, align 8
  %14 = load i32, i32* @num, align 4
  %15 = sext i32 %14 to i64
  %16 = getelementptr inbounds %struct.pa, %struct.pa* %13, i64 %15
  %17 = icmp ult %struct.pa* %12, %16
  br i1 %17, label %18, label %39

18:                                               ; preds = %11
  %19 = load %struct.pa*, %struct.pa** %2, align 8
  %20 = getelementptr inbounds %struct.pa, %struct.pa* %19, i32 0, i32 0
  %21 = getelementptr inbounds [10 x i8], [10 x i8]* %20, i64 0, i64 0
  %22 = load %struct.pa*, %struct.pa** %2, align 8
  %23 = getelementptr inbounds %struct.pa, %struct.pa* %22, i32 0, i32 1
  %24 = call i32 (i8*, ...) @__isoc99_scanf(i8* getelementptr inbounds ([6 x i8], [6 x i8]* @.str.3, i64 0, i64 0), i8* %21, i32* %23)
  %25 = load %struct.pa*, %struct.pa** %2, align 8
  %26 = getelementptr inbounds %struct.pa, %struct.pa* %25, i32 0, i32 1
  %27 = load i32, i32* %26, align 4
  %28 = icmp sge i32 %27, 60
  br i1 %28, label %29, label %32

29:                                               ; preds = %18
  %30 = load %struct.pa*, %struct.pa** %2, align 8
  %31 = getelementptr inbounds %struct.pa, %struct.pa* %30, i32 0, i32 2
  store i32 1, i32* %31, align 4
  br label %35

32:                                               ; preds = %18
  %33 = load %struct.pa*, %struct.pa** %2, align 8
  %34 = getelementptr inbounds %struct.pa, %struct.pa* %33, i32 0, i32 2
  store i32 0, i32* %34, align 4
  br label %35

35:                                               ; preds = %32, %29
  br label %36

36:                                               ; preds = %35
  %37 = load %struct.pa*, %struct.pa** %2, align 8
  %38 = getelementptr inbounds %struct.pa, %struct.pa* %37, i32 1
  store %struct.pa* %38, %struct.pa** %2, align 8
  br label %11

39:                                               ; preds = %11
  %40 = call i32 @operate()
  store i32 %40, i32* %3, align 4
  %41 = load i32, i32* %3, align 4
  call void @print(i32 %41)
  %42 = load i32, i32* %1, align 4
  ret i32 %42
}

declare dso_local i32 @__isoc99_scanf(i8*, ...) #1

; Function Attrs: nounwind
declare dso_local noalias i8* @malloc(i64) #2


!llvm.module.flags = !{!0}
!llvm.ident = !{!1}

!0 = !{i32 1, !"wchar_size", i32 4}
!1 = !{!"clang version 10.0.0-4ubuntu1 "}
